Certificate:
    Data:
        Version: 1 (0x0)
        Serial Number: 4660 (0x1234)
        Signature Algorithm: md5WithRSAEncryption
        Issuer: C=AU, ST=Some-State, O=Internet Widgits Pty Ltd
        Validity
            Not Before: Jul 16 07:04:23 2022 GMT
            Not After : Jul 16 07:04:23 2023 GMT
        Subject: C=AU, ST=Some-State, O=Internet Widgits Pty Ltd
        Subject Public Key Info:
            Public Key Algorithm: rsaEncryption
                RSA Public-Key: (2048 bit)
                Modulus:
                    00:e5:61:5f:e8:be:8e:5a:c5:ab:a3:67:19:1d:bc:
                    fc:5c:3a:b9:65:78:b0:b8:04:39:e1:17:62:3f:91:
                    1d:35:c8:2f:2d:a6:84:9b:c2:ff:61:7e:2f:ec:64:
                    74:44:42:5d:ea:38:cc:c3:d3:9a:f2:93:e1:20:59:
                    2b:2d:a7:34:73:7d:f5:8a:f1:b4:40:98:ee:d4:70:
                    31:80:65:96:3e:9d:fe:6e:d3:60:4f:0e:a9:d2:32:
                    bf:a7:2f:9e:1a:ca:5d:06:1a:5b:0c:bb:dd:ff:76:
                    10:7d:fc:1c:ab:6a:bd:c3:ff:07:bc:8e:6f:bc:da:
                    b8:4a:ce:21:f7:fa:b5:8f:2d:2a:bf:41:f4:a6:21:
                    f8:bd:f4:d4:5e:d4:b8:a9:b1:71:f5:8c:b3:81:85:
                    b5:b2:d8:50:66:f9:84:15:91:ee:67:81:b3:9c:f2:
                    43:54:6c:25:d1:23:c2:75:f2:a7:5c:22:cc:ff:93:
                    6c:a3:90:ca:8c:e9:02:75:26:29:e7:22:ee:c9:bd:
                    2e:d9:a7:da:da:41:55:fb:ae:74:cb:73:37:52:81:
                    0d:4d:6a:0a:ae:cb:76:2c:61:19:d1:d9:f3:37:09:
                    a5:19:a6:5b:df:f8:7d:6e:93:b3:51:19:74:06:e2:
                    91:a8:77:8e:8b:71:8d:45:78:99:f2:21:f7:1a:c4:
                    a9:a7
                Exponent: 65537 (0x10001)
    Signature Algorithm: md5WithRSAEncryption
         3c:eb:b7:f5:41:41:99:3a:6c:e7:f9:9e:84:45:a9:1d:30:e2:
         cb:46:7e:6e:e6:f4:5d:72:91:15:ae:a3:e6:1b:72:e2:85:63:
         3c:88:9c:65:d0:38:f8:28:10:f4:63:0b:09:9d:a5:2e:fd:72:
         72:ae:ca:ee:fc:70:ae:99:6e:2a:6f:ab:12:17:83:75:67:b3:
         c8:1d:52:8d:a9:3f:38:19:ea:b5:2c:9a:e9:d8:b7:fa:fb:38:
         4a:2d:cc:97:4c:c8:95:c5:42:a6:59:7a:07:50:f1:7b:79:8f:
         8e:64:a5:04:02:04:b6:68:45:85:c0:cb:97:e5:e2:80:7e:16:
         71:fa:92:53:c0:08:89:fa:a6:e1:f2:42:2d:a1:92:d5:af:f4:
         96:d1:41:17:c3:d9:78:d3:c0:de:b4:e3:75:ec:a5:f1:6a:60:
         3f:dd:ff:73:11:d8:e1:26:98:ad:60:eb:61:b0:b0:4c:00:88:
         00:55:02:c4:0a:e6:cb:04:ed:05:0f:3d:4a:84:41:03:b0:e3:
         b5:47:98:af:b9:99:88:28:8a:27:7e:d0:4d:af:07:a6:e5:bb:
         f6:d8:5f:f5:7f:f1:fd:43:f2:63:fb:fb:d2:d7:8e:55:e1:f9:
         ce:82:37:f0:85:ae:82:49:35:1f:2b:96:11:e2:77:a2:f1:2a:
         9e:04:af:a7
-----BEGIN CERTIFICATE-----
MIIC/zCCAecCAhI0MA0GCSqGSIb3DQEBBAUAMEUxCzAJBgNVBAYTAkFVMRMwEQYD
VQQIDApTb21lLVN0YXRlMSEwHwYDVQQKDBhJbnRlcm5ldCBXaWRnaXRzIFB0eSBM
dGQwHhcNMjIwNzE2MDcwNDIzWhcNMjMwNzE2MDcwNDIzWjBFMQswCQYDVQQGEwJB
VTETMBEGA1UECAwKU29tZS1TdGF0ZTEhMB8GA1UECgwYSW50ZXJuZXQgV2lkZ2l0
cyBQdHkgTHRkMIIBIjANBgkqhkiG9w0BAQEFAAOCAQ8AMIIBCgKCAQEA5WFf6L6O
WsWro2cZHbz8XDq5ZXiwuAQ54RdiP5EdNcgvLaaEm8L/YX4v7GR0REJd6jjMw9Oa
8pPhIFkrLac0c331ivG0QJju1HAxgGWWPp3+btNgTw6p0jK/py+eGspdBhpbDLvd
/3YQffwcq2q9w/8HvI5vvNq4Ss4h9/q1jy0qv0H0piH4vfTUXtS4qbFx9YyzgYW1
sthQZvmEFZHuZ4GznPJDVGwl0SPCdfKnXCLM/5Nso5DKjOkCdSYp5yLuyb0u2afa
2kFV+650y3M3UoENTWoKrst2LGEZ0dnzNwmlGaZb3/h9bpOzURl0BuKRqHeOi3GN
RXiZ8iH3GsSppwIDAQABMA0GCSqGSIb3DQEBBAUAA4IBAQA867f1QUGZOmzn+Z6E
RakdMOLLRn5u5vRdcpEVrqPmG3LihWM8iJxl0Dj4KBD0YwsJnaUu/XJyrsru/HCu
mW4qb6sSF4N1Z7PIHVKNqT84Geq1LJrp2Lf6+zhKLcyXTMiVxUKmWXoHUPF7eY+O
ZKUEAgS2aEWFwMuX5eKAfhZx+pJTwAiJ+qbh8kItoZLVr/SW0UEXw9l408DetON1
7KXxamA/3f9zEdjhJpitYOthsLBMAIgAVQLECubLBO0FDz1KhEEDsOO1R5ivuZmI
KIonftBNrwem5bv22F/1f/H9Q/Jj+/vS145V4fnOgjfwha6CSTUfK5YR4nei8Sqe
BK+n
-----END CERTIFICATE-----
